target datalayout = "e-m:e-p270:32:32-p271:32:32-p272:64:64-i64:64-i128:128-f80:128-n8:16:32:64-S128"
target triple = "x86_64-pc-linux-gnu"

%struct._lv_bar_t = type { %struct._lv_obj_t, i32, i32, i32, i32, %struct.lv_area_t, i8, %struct._lv_bar_anim_t, %struct._lv_bar_anim_t, i8 }
%struct._lv_obj_t = type { ptr, ptr, ptr, ptr, ptr, %struct.lv_area_t, i32, i16, i16 }
%struct.lv_area_t = type { i32, i32, i32, i32 }
%struct._lv_bar_anim_t = type { ptr, i32, i32, i32 }
%struct._lv_anim_t = type { ptr, ptr, ptr, ptr, ptr, ptr, ptr, ptr, ptr, i32, i32, i32, i32, i32, i32, i32, i32, i32, %union._lv_anim_path_para_t, i32, i8 }
%union._lv_anim_path_para_t = type { %struct.lv_anim_bezier3_para_t }
%struct.lv_anim_bezier3_para_t = type { i16, i16, i16, i16 }
%union.lv_style_value_t = type { ptr }

; Function Attrs: inlinehint nounwind uwtable
define internal i32 @lv_obj_get_style_anim_duration(ptr noundef %0, i32 noundef %1) #3 {
  %3 = alloca ptr, align 8
  %4 = alloca i32, align 4
  %5 = alloca %union.lv_style_value_t, align 8
  store ptr %0, ptr %3, align 8, !tbaa !3
  store i32 %1, ptr %4, align 4, !tbaa !23
  call void @llvm.lifetime.start.p0(i64 8, ptr %5) #5
  %6 = load ptr, ptr %3, align 8, !tbaa !3
  %7 = load i32, ptr %4, align 4, !tbaa !23
  %8 = call ptr @lv_obj_get_style_prop(ptr noundef %6, i32 noundef %7, i8 noundef zeroext 100)
  %9 = getelementptr inbounds nuw %union.lv_style_value_t, ptr %5, i32 0, i32 0
  store ptr %8, ptr %9, align 8
  %10 = load i32, ptr %5, align 8, !tbaa !34
  call void @llvm.lifetime.end.p0(i64 8, ptr %5) #5
  ret i32 %10
}

; Function Attrs: nounwind uwtable
define internal void @lv_bar_set_value_with_anim(ptr noundef %0, i32 noundef %1, ptr noundef %2, ptr noundef %3, i32 noundef %4) #0 {
  %6 = alloca ptr, align 8
  %7 = alloca i32, align 4
  %8 = alloca ptr, align 8
  %9 = alloca ptr, align 8
  %10 = alloca i32, align 4
  %11 = alloca %struct._lv_anim_t, align 8
  store ptr %0, ptr %6, align 8, !tbaa !3
  store i32 %1, ptr %7, align 4, !tbaa !23
  store ptr %2, ptr %8, align 8, !tbaa !3
  store ptr %3, ptr %9, align 8, !tbaa !3
  store i32 %4, ptr %10, align 4, !tbaa !23
  %12 = load i32, ptr %10, align 4, !tbaa !23
  %13 = icmp eq i32 %12, 0
  br i1 %13, label %14, label %26

14:                                               ; preds = %5
  %15 = load ptr, ptr %9, align 8, !tbaa !3
  %16 = call zeroext i1 @lv_anim_delete(ptr noundef %15, ptr noundef null)
  %17 = load ptr, ptr %9, align 8, !tbaa !3
  %18 = getelementptr inbounds nuw %struct._lv_bar_anim_t, ptr %17, i32 0, i32 3
  store i32 -1, ptr %18, align 8, !tbaa !24
  %19 = load i32, ptr %7, align 4, !tbaa !23
  %20 = load ptr, ptr %8, align 8, !tbaa !3
  store i32 %19, ptr %20, align 4, !tbaa !23
  %21 = load ptr, ptr %6, align 8, !tbaa !3
  call void @lv_obj_invalidate(ptr noundef %21)
  %22 = load ptr, ptr %9, align 8, !tbaa !3
  %23 = call zeroext i1 @lv_anim_delete(ptr noundef %22, ptr noundef null)
  %24 = load ptr, ptr %6, align 8, !tbaa !3
  %25 = load ptr, ptr %9, align 8, !tbaa !3
  call void @lv_bar_init_anim(ptr noundef %24, ptr noundef %25)
  br label %57

26:                                               ; preds = %5
  %27 = load ptr, ptr %9, align 8, !tbaa !3
  %28 = getelementptr inbounds nuw %struct._lv_bar_anim_t, ptr %27, i32 0, i32 3
  %29 = load i32, ptr %28, align 8, !tbaa !24
  %30 = icmp eq i32 %29, -1
  br i1 %30, label %31, label %39

31:                                               ; preds = %26
  %32 = load ptr, ptr %8, align 8, !tbaa !3
  %33 = load i32, ptr %32, align 4, !tbaa !23
  %34 = load ptr, ptr %9, align 8, !tbaa !3
  %35 = getelementptr inbounds nuw %struct._lv_bar_anim_t, ptr %34, i32 0, i32 1
  store i32 %33, ptr %35, align 8, !tbaa !25
  %36 = load i32, ptr %7, align 4, !tbaa !23
  %37 = load ptr, ptr %9, align 8, !tbaa !3
  %38 = getelementptr inbounds nuw %struct._lv_bar_anim_t, ptr %37, i32 0, i32 2
  store i32 %36, ptr %38, align 4, !tbaa !26
  br label %48

39:                                               ; preds = %26
  %40 = load ptr, ptr %9, align 8, !tbaa !3
  %41 = getelementptr inbounds nuw %struct._lv_bar_anim_t, ptr %40, i32 0, i32 2
  %42 = load i32, ptr %41, align 4, !tbaa !26
  %43 = load ptr, ptr %9, align 8, !tbaa !3
  %44 = getelementptr inbounds nuw %struct._lv_bar_anim_t, ptr %43, i32 0, i32 1
  store i32 %42, ptr %44, align 8, !tbaa !25
  %45 = load i32, ptr %7, align 4, !tbaa !23
  %46 = load ptr, ptr %9, align 8, !tbaa !3
  %47 = getelementptr inbounds nuw %struct._lv_bar_anim_t, ptr %46, i32 0, i32 2
  store i32 %45, ptr %47, align 4, !tbaa !26
  br label %48

48:                                               ; preds = %39, %31
  %49 = load i32, ptr %7, align 4, !tbaa !23
  %50 = load ptr, ptr %8, align 8, !tbaa !3
  store i32 %49, ptr %50, align 4, !tbaa !23
  %51 = load ptr, ptr %9, align 8, !tbaa !3
  %52 = call zeroext i1 @lv_anim_delete(ptr noundef %51, ptr noundef null)
  call void @llvm.lifetime.start.p0(i64 128, ptr %11) #5
  call void @lv_anim_init(ptr noundef %11)
  %53 = load ptr, ptr %9, align 8, !tbaa !3
  call void @lv_anim_set_var(ptr noundef %11, ptr noundef %53)
  call void @lv_anim_set_exec_cb(ptr noundef %11, ptr noundef @lv_bar_anim)
  call void @lv_anim_set_values(ptr noundef %11, i32 noundef 0, i32 noundef 256)
  call void @lv_anim_set_completed_cb(ptr noundef %11, ptr noundef @lv_bar_anim_completed)
  %54 = load ptr, ptr %6, align 8, !tbaa !3
  %55 = call i32 @lv_obj_get_style_anim_duration(ptr noundef %54, i32 noundef 0)
  call void @lv_anim_set_duration(ptr noundef %11, i32 noundef %55)
  %56 = call ptr @lv_anim_start(ptr noundef %11)
  call void @llvm.lifetime.end.p0(i64 128, ptr %11) #5
  br label %57

57:                                               ; preds = %48, %14
  ret void
}

; Function Attrs: nounwind uwtable
define void @lv_bar_set_value(ptr noundef %0, i32 noundef %1, i32 noundef %2) #0 {
  %4 = alloca ptr, align 8
  %5 = alloca i32, align 4
  %6 = alloca i32, align 4
  %7 = alloca ptr, align 8
  %8 = alloca i32, align 4
  store ptr %0, ptr %4, align 8, !tbaa !3
  store i32 %1, ptr %5, align 4, !tbaa !23
  store i32 %2, ptr %6, align 4, !tbaa !23
  br label %9

9:                                                ; preds = %3
  br label %10

10:                                               ; preds = %9
  call void @llvm.lifetime.start.p0(i64 8, ptr %7) #5
  %11 = load ptr, ptr %4, align 8, !tbaa !3
  store ptr %11, ptr %7, align 8, !tbaa !3
  %12 = load ptr, ptr %7, align 8, !tbaa !3
  %13 = getelementptr inbounds nuw %struct._lv_bar_t, ptr %12, i32 0, i32 1
  %14 = load i32, ptr %13, align 8, !tbaa !17
  %15 = load i32, ptr %5, align 4, !tbaa !23
  %16 = icmp eq i32 %14, %15
  br i1 %16, label %17, label %18

17:                                               ; preds = %10
  store i32 1, ptr %8, align 4
  br label %83

18:                                               ; preds = %10
  %19 = load ptr, ptr %7, align 8, !tbaa !3
  %20 = getelementptr inbounds nuw %struct._lv_bar_t, ptr %19, i32 0, i32 2
  %21 = load i32, ptr %20, align 4, !tbaa !7
  %22 = load i32, ptr %5, align 4, !tbaa !23
  %23 = load ptr, ptr %7, align 8, !tbaa !3
  %24 = getelementptr inbounds nuw %struct._lv_bar_t, ptr %23, i32 0, i32 3
  %25 = load i32, ptr %24, align 8, !tbaa !15
  %26 = icmp slt i32 %22, %25
  br i1 %26, label %27, label %29

27:                                               ; preds = %18
  %28 = load i32, ptr %5, align 4, !tbaa !23
  br label %33

29:                                               ; preds = %18
  %30 = load ptr, ptr %7, align 8, !tbaa !3
  %31 = getelementptr inbounds nuw %struct._lv_bar_t, ptr %30, i32 0, i32 3
  %32 = load i32, ptr %31, align 8, !tbaa !15
  br label %33

33:                                               ; preds = %29, %27
  %34 = phi i32 [ %28, %27 ], [ %32, %29 ]
  %35 = icmp sgt i32 %21, %34
  br i1 %35, label %36, label %40

36:                                               ; preds = %33
  %37 = load ptr, ptr %7, align 8, !tbaa !3
  %38 = getelementptr inbounds nuw %struct._lv_bar_t, ptr %37, i32 0, i32 2
  %39 = load i32, ptr %38, align 4, !tbaa !7
  br label %54

40:                                               ; preds = %33
  %41 = load i32, ptr %5, align 4, !tbaa !23
  %42 = load ptr, ptr %7, align 8, !tbaa !3
  %43 = getelementptr inbounds nuw %struct._lv_bar_t, ptr %42, i32 0, i32 3
  %44 = load i32, ptr %43, align 8, !tbaa !15
  %45 = icmp slt i32 %41, %44
  br i1 %45, label %46, label %48

46:                                               ; preds = %40
  %47 = load i32, ptr %5, align 4, !tbaa !23
  br label %52

48:                                               ; preds = %40
  %49 = load ptr, ptr %7, align 8, !tbaa !3
  %50 = getelementptr inbounds nuw %struct._lv_bar_t, ptr %49, i32 0, i32 3
  %51 = load i32, ptr %50, align 8, !tbaa !15
  br label %52

52:                                               ; preds = %48, %46
  %53 = phi i32 [ %47, %46 ], [ %51, %48 ]
  br label %54

54:                                               ; preds = %52, %36
  %55 = phi i32 [ %39, %36 ], [ %53, %52 ]
  store i32 %55, ptr %5, align 4, !tbaa !23
  %56 = load i32, ptr %5, align 4, !tbaa !23
  %57 = load ptr, ptr %7, align 8, !tbaa !3
  %58 = getelementptr inbounds nuw %struct._lv_bar_t, ptr %57, i32 0, i32 4
  %59 = load i32, ptr %58, align 4, !tbaa !16
  %60 = icmp slt i32 %56, %59
  br i1 %60, label %61, label %65

61:                                               ; preds = %54
  %62 = load ptr, ptr %7, align 8, !tbaa !3
  %63 = getelementptr inbounds nuw %struct._lv_bar_t, ptr %62, i32 0, i32 4
  %64 = load i32, ptr %63, align 4, !tbaa !16
  br label %67

65:                                               ; preds = %54
  %66 = load i32, ptr %5, align 4, !tbaa !23
  br label %67

67:                                               ; preds = %65, %61
  %68 = phi i32 [ %64, %61 ], [ %66, %65 ]
  store i32 %68, ptr %5, align 4, !tbaa !23
  %69 = load ptr, ptr %7, align 8, !tbaa !3
  %70 = getelementptr inbounds nuw %struct._lv_bar_t, ptr %69, i32 0, i32 1
  %71 = load i32, ptr %70, align 8, !tbaa !17
  %72 = load i32, ptr %5, align 4, !tbaa !23
  %73 = icmp eq i32 %71, %72
  br i1 %73, label %74, label %75

74:                                               ; preds = %67
  store i32 1, ptr %8, align 4
  br label %83

75:                                               ; preds = %67
  %76 = load ptr, ptr %4, align 8, !tbaa !3
  %77 = load i32, ptr %5, align 4, !tbaa !23
  %78 = load ptr, ptr %7, align 8, !tbaa !3
  %79 = getelementptr inbounds nuw %struct._lv_bar_t, ptr %78, i32 0, i32 1
  %80 = load ptr, ptr %7, align 8, !tbaa !3
  %81 = getelementptr inbounds nuw %struct._lv_bar_t, ptr %80, i32 0, i32 7
  %82 = load i32, ptr %6, align 4, !tbaa !23
  call void @lv_bar_set_value_with_anim(ptr noundef %76, i32 noundef %77, ptr noundef %79, ptr noundef %81, i32 noundef %82)
  store i32 0, ptr %8, align 4
  br label %83

83:                                               ; preds = %75, %74, %17
  call void @llvm.lifetime.end.p0(i64 8, ptr %7) #5
  %84 = load i32, ptr %8, align 4
  switch i32 %84, label %86 [
    i32 0, label %85
    i32 1, label %85
  ]

85:                                               ; preds = %83, %83
  ret void

86:                                               ; preds = %83
  unreachable
}

; Function Attrs: nounwind uwtable
define internal void @lv_bar_init_anim(ptr noundef %0, ptr noundef %1) #0 {
  %3 = alloca ptr, align 8
  %4 = alloca ptr, align 8
  store ptr %0, ptr %3, align 8, !tbaa !3
  store ptr %1, ptr %4, align 8, !tbaa !3
  %5 = load ptr, ptr %3, align 8, !tbaa !3
  %6 = load ptr, ptr %4, align 8, !tbaa !3
  %7 = getelementptr inbounds nuw %struct._lv_bar_anim_t, ptr %6, i32 0, i32 0
  store ptr %5, ptr %7, align 8, !tbaa !33
  %8 = load ptr, ptr %4, align 8, !tbaa !3
  %9 = getelementptr inbounds nuw %struct._lv_bar_anim_t, ptr %8, i32 0, i32 1
  store i32 0, ptr %9, align 8, !tbaa !25
  %10 = load ptr, ptr %4, align 8, !tbaa !3
  %11 = getelementptr inbounds nuw %struct._lv_bar_anim_t, ptr %10, i32 0, i32 2
  store i32 0, ptr %11, align 4, !tbaa !26
  %12 = load ptr, ptr %4, align 8, !tbaa !3
  %13 = getelementptr inbounds nuw %struct._lv_bar_anim_t, ptr %12, i32 0, i32 3
  store i32 -1, ptr %13, align 8, !tbaa !24
  ret void
}

; Function Attrs: nounwind uwtable
define internal void @lv_bar_constructor(ptr noundef %0, ptr noundef %1) #0 {
  %3 = alloca ptr, align 8
  %4 = alloca ptr, align 8
  %5 = alloca ptr, align 8
  store ptr %0, ptr %3, align 8, !tbaa !3
  store ptr %1, ptr %4, align 8, !tbaa !3
  call void @llvm.lifetime.start.p0(i64 8, ptr %5) #5
  %6 = load ptr, ptr %4, align 8, !tbaa !3
  store ptr %6, ptr %5, align 8, !tbaa !3
  %7 = load ptr, ptr %5, align 8, !tbaa !3
  %8 = getelementptr inbounds nuw %struct._lv_bar_t, ptr %7, i32 0, i32 2
  store i32 0, ptr %8, align 4, !tbaa !7
  %9 = load ptr, ptr %5, align 8, !tbaa !3
  %10 = getelementptr inbounds nuw %struct._lv_bar_t, ptr %9, i32 0, i32 3
  store i32 100, ptr %10, align 8, !tbaa !15
  %11 = load ptr, ptr %5, align 8, !tbaa !3
  %12 = getelementptr inbounds nuw %struct._lv_bar_t, ptr %11, i32 0, i32 4
  store i32 0, ptr %12, align 4, !tbaa !16
  %13 = load ptr, ptr %5, align 8, !tbaa !3
  %14 = getelementptr inbounds nuw %struct._lv_bar_t, ptr %13, i32 0, i32 1
  store i32 0, ptr %14, align 8, !tbaa !17
  %15 = load ptr, ptr %5, align 8, !tbaa !3
  %16 = getelementptr inbounds nuw %struct._lv_bar_t, ptr %15, i32 0, i32 5
  %17 = getelementptr inbounds nuw %struct.lv_area_t, ptr %16, i32 0, i32 0
  store i32 0, ptr %17, align 8, !tbaa !18
  %18 = load ptr, ptr %5, align 8, !tbaa !3
  %19 = getelementptr inbounds nuw %struct._lv_bar_t, ptr %18, i32 0, i32 5
  %20 = getelementptr inbounds nuw %struct.lv_area_t, ptr %19, i32 0, i32 2
  store i32 0, ptr %20, align 8, !tbaa !19
  %21 = load ptr, ptr %5, align 8, !tbaa !3
  %22 = getelementptr inbounds nuw %struct._lv_bar_t, ptr %21, i32 0, i32 5
  %23 = getelementptr inbounds nuw %struct.lv_area_t, ptr %22, i32 0, i32 1
  store i32 0, ptr %23, align 4, !tbaa !20
  %24 = load ptr, ptr %5, align 8, !tbaa !3
  %25 = getelementptr inbounds nuw %struct._lv_bar_t, ptr %24, i32 0, i32 5
  %26 = getelementptr inbounds nuw %struct.lv_area_t, ptr %25, i32 0, i32 3
  store i32 0, ptr %26, align 4, !tbaa !21
  %27 = load ptr, ptr %5, align 8, !tbaa !3
  %28 = getelementptr inbounds nuw %struct._lv_bar_t, ptr %27, i32 0, i32 9
  %29 = load i8, ptr %28, align 8
  %30 = and i8 %29, -8
  %31 = or i8 %30, 0
  store i8 %31, ptr %28, align 8
  %32 = load ptr, ptr %5, align 8, !tbaa !3
  %33 = getelementptr inbounds nuw %struct._lv_bar_t, ptr %32, i32 0, i32 9
  %34 = load i8, ptr %33, align 8
  %35 = and i8 %34, -57
  %36 = or i8 %35, 0
  store i8 %36, ptr %33, align 8
  %37 = load ptr, ptr %5, align 8, !tbaa !3
  %38 = getelementptr inbounds nuw %struct._lv_bar_t, ptr %37, i32 0, i32 6
  store i8 0, ptr %38, align 8, !tbaa !22
  %39 = load ptr, ptr %4, align 8, !tbaa !3
  %40 = load ptr, ptr %5, align 8, !tbaa !3
  %41 = getelementptr inbounds nuw %struct._lv_bar_t, ptr %40, i32 0, i32 7
  call void @lv_bar_init_anim(ptr noundef %39, ptr noundef %41)
  %42 = load ptr, ptr %4, align 8, !tbaa !3
  %43 = load ptr, ptr %5, align 8, !tbaa !3
  %44 = getelementptr inbounds nuw %struct._lv_bar_t, ptr %43, i32 0, i32 8
  call void @lv_bar_init_anim(ptr noundef %42, ptr noundef %44)
  %45 = load ptr, ptr %4, align 8, !tbaa !3
  call void @lv_obj_remove_flag(ptr noundef %45, i32 noundef 8)
  %46 = load ptr, ptr %4, align 8, !tbaa !3
  call void @lv_obj_remove_flag(ptr noundef %46, i32 noundef 16)
  %47 = load ptr, ptr %4, align 8, !tbaa !3
  call void @lv_bar_set_value(ptr noundef %47, i32 noundef 0, i32 noundef 0)
  call void @llvm.lifetime.end.p0(i64 8, ptr %5) #5
  ret void
}