; Function Attrs: nounwind uwtable
define internal void @lv_bar_constructor(ptr nocapture readnone %0, ptr noundef %1) #0 {
  %3 = getelementptr inbounds nuw i8, ptr %1, i64 68
  store i32 0, ptr %3, align 4, !tbaa !3
  %4 = getelementptr inbounds nuw i8, ptr %1, i64 72
  store i32 100, ptr %4, align 8, !tbaa !14
  %5 = getelementptr inbounds nuw i8, ptr %1, i64 76
  %6 = getelementptr inbounds nuw i8, ptr %1, i64 64
  store i32 0, ptr %6, align 8, !tbaa !15
  %7 = getelementptr inbounds nuw i8, ptr %1, i64 152
  tail call void @llvm.memset.p0.i64(ptr noundef nonnull align 4 dereferenceable(20) %5, i8 0, i64 20, i1 false)
  %8 = load i8, ptr %7, align 8
  %9 = and i8 %8, -64
  store i8 %9, ptr %7, align 8
  %10 = getelementptr inbounds nuw i8, ptr %1, i64 96
  store i8 0, ptr %10, align 8, !tbaa !16
  %11 = getelementptr inbounds nuw i8, ptr %1, i64 104
  store ptr %1, ptr %11, align 8, !tbaa !17
  %12 = getelementptr inbounds nuw i8, ptr %1, i64 112
  store i32 0, ptr %12, align 8, !tbaa !18
  %13 = getelementptr inbounds nuw i8, ptr %1, i64 116
  store i32 0, ptr %13, align 4, !tbaa !19
  %14 = getelementptr inbounds nuw i8, ptr %1, i64 120
  store i32 -1, ptr %14, align 8, !tbaa !20
  %15 = getelementptr inbounds nuw i8, ptr %1, i64 128
  store ptr %1, ptr %15, align 8, !tbaa !17
  %16 = getelementptr inbounds nuw i8, ptr %1, i64 136
  store i32 0, ptr %16, align 8, !tbaa !18
  %17 = getelementptr inbounds nuw i8, ptr %1, i64 140
  store i32 0, ptr %17, align 4, !tbaa !19
  %18 = getelementptr inbounds nuw i8, ptr %1, i64 144
  store i32 -1, ptr %18, align 8, !tbaa !20
  tail call void @lv_obj_remove_flag(ptr noundef %1, i32 noundef 8) #7
  tail call void @lv_obj_remove_flag(ptr noundef %1, i32 noundef 16) #7
  %19 = load i32, ptr %6, align 8, !tbaa !15
  %20 = icmp eq i32 %19, 0
  br i1 %20, label %lv_bar_set_value.exit, label %21

21:                                               ; preds = %2
  %22 = load i32, ptr %3, align 4, !tbaa !3
  %23 = load i32, ptr %4, align 8, !tbaa !14
  %..i = tail call i32 @llvm.smin.i32(i32 %23, i32 0)
  %spec.select.i = tail call i32 @llvm.smax.i32(i32 %22, i32 %..i)
  %24 = load i32, ptr %5, align 4, !tbaa !21
  %.29.i = tail call i32 @llvm.smax.i32(i32 %spec.select.i, i32 %24)
  %25 = icmp eq i32 %19, %.29.i
  br i1 %25, label %lv_bar_set_value.exit, label %26

26:                                               ; preds = %21
  %27 = tail call zeroext i1 @lv_anim_delete(ptr noundef nonnull %11, ptr noundef null) #7
  store i32 -1, ptr %14, align 8, !tbaa !20
  store i32 %.29.i, ptr %6, align 4, !tbaa !22
  tail call void @lv_obj_invalidate(ptr noundef nonnull %1) #7
  %28 = tail call zeroext i1 @lv_anim_delete(ptr noundef nonnull %11, ptr noundef null) #7
  store ptr %1, ptr %11, align 8, !tbaa !17
  store i32 0, ptr %12, align 8, !tbaa !18
  store i32 0, ptr %13, align 4, !tbaa !19
  store i32 -1, ptr %14, align 8, !tbaa !20
  br label %lv_bar_set_value.exit

lv_bar_set_value.exit:                            ; preds = %2, %21, %26
  ret void
}